; Function Attrs: mustprogress nofree norecurse nosync nounwind willreturn memory(argmem: read) uwtable
define internal noundef zeroext i1 @_ZNK12_GLOBAL__N_123ParsedAttrInfoDLLExport14existsInTargetERKN5clang10TargetInfoE(ptr nocapture nonnull readnone align 8 %0, ptr nocapture noundef nonnull readonly align 8 dereferenceable(489) %1) unnamed_addr #2 align 2 {
  %3 = getelementptr inbounds i8, ptr %1, i64 260
  %4 = load i32, ptr %3, align 4
  %5 = icmp eq i32 %4, 14
  br i1 %5, label %_ZNK4llvm6Triple18hasDLLImportExportEv.exit, label %6

6:                                                ; preds = %2
  %7 = getelementptr inbounds i8, ptr %1, i64 248
  %8 = load i32, ptr %7, align 8
  %9 = icmp eq i32 %8, 38
  %10 = getelementptr inbounds i8, ptr %1, i64 256
  %11 = load i32, ptr %10, align 8
  %12 = icmp eq i32 %11, 3
  %or.cond.i.i.i = select i1 %9, i1 %12, i1 false
  br i1 %or.cond.i.i.i, label %_ZNK4llvm6Triple5isPS4Ev.exit.i.i, label %_ZNK4llvm6Triple18hasDLLImportExportEv.exit

_ZNK4llvm6Triple5isPS4Ev.exit.i.i:                ; preds = %6
  %13 = add i32 %4, -23
  %spec.select.i.i = icmp ult i32 %13, 2
  br label %_ZNK4llvm6Triple18hasDLLImportExportEv.exit

_ZNK4llvm6Triple18hasDLLImportExportEv.exit:      ; preds = %2, %6, %_ZNK4llvm6Triple5isPS4Ev.exit.i.i
  %14 = phi i1 [ true, %2 ], [ false, %6 ], [ %spec.select.i.i, %_ZNK4llvm6Triple5isPS4Ev.exit.i.i ]
  ret i1 %14
}